#include <math.h>
#include <stdio.h>
#include <stdlib.h>
#include <string.h>
#include <iostream>
using namespace std;

//????
int main()
{
	char a[101],b[101];
	char *p,*q;
	cin.getline (a,100);          //?????????
	for (p = a, q = b; *p != '\0'; p++)        //?p?q????a?b?????p
	{
		if (!((*p == ' ') && (*(p-1) == ' ')))     //????p?????????????????????????q??b?
		{
			*q = *p;						
			q++;
		}	                                 //???????
	}
	*q = '\0';                             //??????
 	cout << b << endl;
	return 0;
}